target datalayout = "e-m:e-p270:32:32-p271:32:32-p272:64:64-i64:64-i128:128-f80:128-n8:16:32:64-S128"
target triple = "x86_64-pc-linux-gnu"

%struct.nid_triple = type { i32, i32, i32 }

@sig_lock = internal global ptr null, align 8
@.str = private unnamed_addr constant [37 x i8] c"../openssl/crypto/objects/obj_xref.c\00", align 1
@__func__.OBJ_find_sigid_by_algs = private unnamed_addr constant [23 x i8] c"OBJ_find_sigid_by_algs\00", align 1
@sigx_app = internal global ptr null, align 8
@sig_init = internal global i32 0, align 4
@o_sig_init_ossl_ret_ = internal global i32 0, align 4

; Function Attrs: inlinehint nounwind uwtable
define internal ptr @sk_nid_triple_value(ptr noundef %0, i32 noundef %1) #2 {
  %3 = alloca ptr, align 8
  %4 = alloca i32, align 4
  store ptr %0, ptr %3, align 8, !tbaa !13
  store i32 %1, ptr %4, align 4, !tbaa !3
  %5 = load ptr, ptr %3, align 8, !tbaa !13
  %6 = load i32, ptr %4, align 4, !tbaa !3
  %7 = call ptr @OPENSSL_sk_value(ptr noundef %5, i32 noundef %6)
  ret ptr %7
}

; Function Attrs: inlinehint nounwind uwtable
define internal i32 @sk_nid_triple_find(ptr noundef %0, ptr noundef %1) #2 {
  %3 = alloca ptr, align 8
  %4 = alloca ptr, align 8
  store ptr %0, ptr %3, align 8, !tbaa !13
  store ptr %1, ptr %4, align 8, !tbaa !12
  %5 = load ptr, ptr %3, align 8, !tbaa !13
  %6 = load ptr, ptr %4, align 8, !tbaa !12
  %7 = call i32 @OPENSSL_sk_find(ptr noundef %5, ptr noundef %6)
  ret i32 %7
}

; Function Attrs: inlinehint nounwind uwtable
define internal i32 @obj_sig_init() #2 {
  %1 = call i32 @CRYPTO_THREAD_run_once(ptr noundef @sig_init, ptr noundef @o_sig_init_ossl_)
  %2 = icmp ne i32 %1, 0
  br i1 %2, label %3, label %5

3:                                                ; preds = %0
  %4 = load i32, ptr @o_sig_init_ossl_ret_, align 4, !tbaa !3
  br label %6

5:                                                ; preds = %0
  br label %6

6:                                                ; preds = %5, %3
  %7 = phi i32 [ %4, %3 ], [ 0, %5 ]
  ret i32 %7
}

; Function Attrs: nounwind uwtable
define internal ptr @OBJ_bsearch_sigx(ptr noundef %0, ptr noundef %1, i32 noundef %2) #0 {
  %4 = alloca ptr, align 8
  %5 = alloca ptr, align 8
  %6 = alloca i32, align 4
  store ptr %0, ptr %4, align 8, !tbaa !12
  store ptr %1, ptr %5, align 8, !tbaa !12
  store i32 %2, ptr %6, align 4, !tbaa !3
  %7 = load ptr, ptr %4, align 8, !tbaa !12
  %8 = load ptr, ptr %5, align 8, !tbaa !12
  %9 = load i32, ptr %6, align 4, !tbaa !3
  %10 = call ptr @OBJ_bsearch_(ptr noundef %7, ptr noundef %8, i32 noundef %9, i32 noundef 8, ptr noundef @sigx_cmp_BSEARCH_CMP_FN)
  ret ptr %10
}

; Function Attrs: nounwind uwtable
define i32 @OBJ_find_sigid_by_algs(ptr noundef %0, i32 noundef %1, i32 noundef %2) #0 {
  %4 = alloca i32, align 4
  %5 = alloca ptr, align 8
  %6 = alloca i32, align 4
  %7 = alloca i32, align 4
  %8 = alloca %struct.nid_triple, align 4
  %9 = alloca ptr, align 8
  %10 = alloca ptr, align 8
  %11 = alloca i32, align 4
  %12 = alloca i32, align 4
  store ptr %0, ptr %5, align 8, !tbaa !7
  store i32 %1, ptr %6, align 4, !tbaa !3
  store i32 %2, ptr %7, align 4, !tbaa !3
  call void @llvm.lifetime.start.p0(i64 12, ptr %8) #4
  call void @llvm.lifetime.start.p0(i64 8, ptr %9) #4
  store ptr %8, ptr %9, align 8, !tbaa !12
  call void @llvm.lifetime.start.p0(i64 8, ptr %10) #4
  call void @llvm.lifetime.start.p0(i64 4, ptr %11) #4
  %13 = load i32, ptr %7, align 4, !tbaa !3
  %14 = icmp eq i32 %13, 0
  br i1 %14, label %15, label %16

15:                                               ; preds = %3
  store i32 0, ptr %4, align 4
  store i32 1, ptr %12, align 4
  br label %63

16:                                               ; preds = %3
  %17 = load i32, ptr %6, align 4, !tbaa !3
  %18 = getelementptr inbounds nuw %struct.nid_triple, ptr %8, i32 0, i32 1
  store i32 %17, ptr %18, align 4, !tbaa !15
  %19 = load i32, ptr %7, align 4, !tbaa !3
  %20 = getelementptr inbounds nuw %struct.nid_triple, ptr %8, i32 0, i32 2
  store i32 %19, ptr %20, align 4, !tbaa !16
  %21 = call ptr @OBJ_bsearch_sigx(ptr noundef %9, ptr noundef @sigoid_srt_xref, i32 noundef 48)
  store ptr %21, ptr %10, align 8, !tbaa !12
  %22 = load ptr, ptr %10, align 8, !tbaa !12
  %23 = icmp eq ptr %22, null
  br i1 %23, label %24, label %53

24:                                               ; preds = %16
  %25 = call i32 @obj_sig_init()
  %26 = icmp ne i32 %25, 0
  br i1 %26, label %28, label %27

27:                                               ; preds = %24
  store i32 0, ptr %4, align 4
  store i32 1, ptr %12, align 4
  br label %63

28:                                               ; preds = %24
  %29 = load ptr, ptr @sig_lock, align 8, !tbaa !12
  %30 = call i32 @CRYPTO_THREAD_read_lock(ptr noundef %29)
  %31 = icmp ne i32 %30, 0
  br i1 %31, label %33, label %32

32:                                               ; preds = %28
  call void @ERR_new()
  call void @ERR_set_debug(ptr noundef @.str, i32 noundef 127, ptr noundef @__func__.OBJ_find_sigid_by_algs)
  call void (i32, i32, ptr, ...) @ERR_set_error(i32 noundef 8, i32 noundef 786703, ptr noundef null)
  store i32 0, ptr %4, align 4
  store i32 1, ptr %12, align 4
  br label %63

33:                                               ; preds = %28
  %34 = load ptr, ptr @sigx_app, align 8, !tbaa !13
  %35 = icmp ne ptr %34, null
  br i1 %35, label %36, label %46

36:                                               ; preds = %33
  %37 = load ptr, ptr @sigx_app, align 8, !tbaa !13
  %38 = call i32 @sk_nid_triple_find(ptr noundef %37, ptr noundef %8)
  store i32 %38, ptr %11, align 4, !tbaa !3
  %39 = load i32, ptr %11, align 4, !tbaa !3
  %40 = icmp sge i32 %39, 0
  br i1 %40, label %41, label %45

41:                                               ; preds = %36
  %42 = load ptr, ptr @sigx_app, align 8, !tbaa !13
  %43 = load i32, ptr %11, align 4, !tbaa !3
  %44 = call ptr @sk_nid_triple_value(ptr noundef %42, i32 noundef %43)
  store ptr %44, ptr %9, align 8, !tbaa !12
  store ptr %9, ptr %10, align 8, !tbaa !12
  br label %45

45:                                               ; preds = %41, %36
  br label %46

46:                                               ; preds = %45, %33
  %47 = load ptr, ptr @sig_lock, align 8, !tbaa !12
  %48 = call i32 @CRYPTO_THREAD_unlock(ptr noundef %47)
  %49 = load ptr, ptr %10, align 8, !tbaa !12
  %50 = icmp eq ptr %49, null
  br i1 %50, label %51, label %52

51:                                               ; preds = %46
  store i32 0, ptr %4, align 4
  store i32 1, ptr %12, align 4
  br label %63

52:                                               ; preds = %46
  br label %53

53:                                               ; preds = %52, %16
  %54 = load ptr, ptr %5, align 8, !tbaa !7
  %55 = icmp ne ptr %54, null
  br i1 %55, label %56, label %62

56:                                               ; preds = %53
  %57 = load ptr, ptr %10, align 8, !tbaa !12
  %58 = load ptr, ptr %57, align 8, !tbaa !12
  %59 = getelementptr inbounds nuw %struct.nid_triple, ptr %58, i32 0, i32 0
  %60 = load i32, ptr %59, align 4, !tbaa !10
  %61 = load ptr, ptr %5, align 8, !tbaa !7
  store i32 %60, ptr %61, align 4, !tbaa !3
  br label %62

62:                                               ; preds = %56, %53
  store i32 1, ptr %4, align 4
  store i32 1, ptr %12, align 4
  br label %63

63:                                               ; preds = %62, %51, %32, %27, %15
  call void @llvm.lifetime.end.p0(i64 4, ptr %11) #4
  call void @llvm.lifetime.end.p0(i64 8, ptr %10) #4
  call void @llvm.lifetime.end.p0(i64 8, ptr %9) #4
  call void @llvm.lifetime.end.p0(i64 12, ptr %8) #4
  %64 = load i32, ptr %4, align 4
  ret i32 %64
}