; Function Attrs: nounwind uwtable
define range(i32 0, 2) i32 @OBJ_find_sigid_by_algs(ptr noundef writeonly captures(address_is_null) %0, i32 noundef %1, i32 noundef %2) local_unnamed_addr #0 {
  %4 = alloca %struct.nid_triple, align 4
  %5 = alloca ptr, align 8
  call void @llvm.lifetime.start.p0(i64 12, ptr nonnull %4) #5
  call void @llvm.lifetime.start.p0(i64 8, ptr nonnull %5) #5
  store ptr %4, ptr %5, align 8, !tbaa !8
  %6 = icmp eq i32 %2, 0
  br i1 %6, label %35, label %7

7:                                                ; preds = %3
  %8 = getelementptr inbounds nuw i8, ptr %4, i64 4
  store i32 %1, ptr %8, align 4, !tbaa !12
  %9 = getelementptr inbounds nuw i8, ptr %4, i64 8
  store i32 %2, ptr %9, align 4, !tbaa !14
  %10 = call ptr @OBJ_bsearch_(ptr noundef nonnull %5, ptr noundef nonnull @sigoid_srt_xref, i32 noundef 48, i32 noundef 8, ptr noundef nonnull @sigx_cmp_BSEARCH_CMP_FN) #5
  %11 = icmp eq ptr %10, null
  br i1 %11, label %12, label %31

12:                                               ; preds = %7
  %13 = call i32 @CRYPTO_THREAD_run_once(ptr noundef nonnull @sig_init, ptr noundef nonnull @o_sig_init_ossl_) #5
  %.not.i = icmp eq i32 %13, 0
  %14 = load i32, ptr @o_sig_init_ossl_ret_, align 4
  %.not21 = icmp eq i32 %14, 0
  %.not = select i1 %.not.i, i1 true, i1 %.not21
  br i1 %.not, label %35, label %15

15:                                               ; preds = %12
  %16 = load ptr, ptr @sig_lock, align 8, !tbaa !8
  %17 = call i32 @CRYPTO_THREAD_read_lock(ptr noundef %16) #5
  %.not17 = icmp eq i32 %17, 0
  br i1 %.not17, label %18, label %19

18:                                               ; preds = %15
  call void @ERR_new() #5
  call void @ERR_set_debug(ptr noundef nonnull @.str, i32 noundef 127, ptr noundef nonnull @__func__.OBJ_find_sigid_by_algs) #5
  call void (i32, i32, ptr, ...) @ERR_set_error(i32 noundef 8, i32 noundef 786703, ptr noundef null) #5
  br label %35

19:                                               ; preds = %15
  %20 = load ptr, ptr @sigx_app, align 8, !tbaa !10
  %.not18 = icmp eq ptr %20, null
  br i1 %.not18, label %.thread, label %21

21:                                               ; preds = %19
  %22 = call i32 @OPENSSL_sk_find(ptr noundef nonnull %20, ptr noundef nonnull %4) #5
  %23 = icmp sgt i32 %22, -1
  br i1 %23, label %26, label %.thread

.thread:                                          ; preds = %21, %19
  %24 = load ptr, ptr @sig_lock, align 8, !tbaa !8
  %25 = call i32 @CRYPTO_THREAD_unlock(ptr noundef %24) #5
  br label %35

26:                                               ; preds = %21
  %27 = load ptr, ptr @sigx_app, align 8, !tbaa !10
  %28 = call ptr @OPENSSL_sk_value(ptr noundef %27, i32 noundef range(i32 0, -2147483648) %22) #5
  store ptr %28, ptr %5, align 8, !tbaa !8
  %29 = load ptr, ptr @sig_lock, align 8, !tbaa !8
  %30 = call i32 @CRYPTO_THREAD_unlock(ptr noundef %29) #5
  br label %31

31:                                               ; preds = %26, %7
  %.010 = phi ptr [ %5, %26 ], [ %10, %7 ]
  %.not19 = icmp eq ptr %0, null
  br i1 %.not19, label %35, label %32

32:                                               ; preds = %31
  %33 = load ptr, ptr %.010, align 8, !tbaa !8
  %34 = load i32, ptr %33, align 4, !tbaa !3
  store i32 %34, ptr %0, align 4, !tbaa !13
  br label %35

35:                                               ; preds = %.thread, %31, %32, %12, %3, %18
  %.0 = phi i32 [ 0, %18 ], [ 0, %3 ], [ 0, %12 ], [ 1, %32 ], [ 1, %31 ], [ 0, %.thread ]
  call void @llvm.lifetime.end.p0(i64 8, ptr nonnull %5) #5
  call void @llvm.lifetime.end.p0(i64 12, ptr nonnull %4) #5
  ret i32 %.0
}